; ModuleID = '54/275.c'
source_filename = "54/275.c"
target datalayout = "e-m:e-p270:32:32-p271:32:32-p272:64:64-i64:64-f80:128-n8:16:32:64-S128"
target triple = "x86_64-pc-linux-gnu"

@.str = private unnamed_addr constant [6 x i8] c"%d %d\00", align 1
@.str.1 = private unnamed_addr constant [3 x i8] c"%d\00", align 1

; Function Attrs: noinline nounwind uwtable
define dso_local void @main() #0 {
  %1 = alloca i32, align 4
  %2 = alloca i32, align 4
  %3 = alloca i32, align 4
  %4 = alloca i32, align 4
  %5 = alloca i32, align 4
  %6 = call i32 (i8*, ...) @__isoc99_scanf(i8* getelementptr inbounds ([6 x i8], [6 x i8]* @.str, i64 0, i64 0), i32* %1, i32* %2)
  %7 = load i32, i32* %1, align 4
  %8 = load i32, i32* %2, align 4
  %9 = add nsw i32 %7, %8
  store i32 %9, i32* %4, align 4
  br label %10

10:                                               ; preds = %51, %0
  %11 = load i32, i32* %4, align 4
  %12 = icmp sgt i32 %11, 0
  br i1 %12, label %13, label %54

13:                                               ; preds = %10
  %14 = load i32, i32* %4, align 4
  store i32 %14, i32* %3, align 4
  store i32 1, i32* %5, align 4
  br label %15

15:                                               ; preds = %38, %13
  %16 = load i32, i32* %3, align 4
  %17 = load i32, i32* %2, align 4
  %18 = sub nsw i32 %16, %17
  %19 = load i32, i32* %1, align 4
  %20 = srem i32 %18, %19
  %21 = icmp eq i32 %20, 0
  br i1 %21, label %22, label %26

22:                                               ; preds = %15
  %23 = load i32, i32* %5, align 4
  %24 = load i32, i32* %1, align 4
  %25 = icmp sle i32 %23, %24
  br label %26

26:                                               ; preds = %22, %15
  %27 = phi i1 [ false, %15 ], [ %25, %22 ]
  br i1 %27, label %28, label %41

28:                                               ; preds = %26
  %29 = load i32, i32* %3, align 4
  %30 = load i32, i32* %3, align 4
  %31 = load i32, i32* %2, align 4
  %32 = sub nsw i32 %30, %31
  %33 = load i32, i32* %1, align 4
  %34 = sdiv i32 %32, %33
  %35 = sub nsw i32 %29, %34
  %36 = load i32, i32* %2, align 4
  %37 = sub nsw i32 %35, %36
  store i32 %37, i32* %3, align 4
  br label %38

38:                                               ; preds = %28
  %39 = load i32, i32* %5, align 4
  %40 = add nsw i32 %39, 1
  store i32 %40, i32* %5, align 4
  br label %15

41:                                               ; preds = %26
  %42 = load i32, i32* %5, align 4
  %43 = load i32, i32* %1, align 4
  %44 = add nsw i32 %43, 1
  %45 = icmp eq i32 %42, %44
  br i1 %45, label %46, label %50

46:                                               ; preds = %41
  %47 = load i32, i32* %3, align 4
  %48 = icmp sgt i32 %47, 0
  br i1 %48, label %49, label %50

49:                                               ; preds = %46
  br label %54

50:                                               ; preds = %46, %41
  br label %51

51:                                               ; preds = %50
  %52 = load i32, i32* %4, align 4
  %53 = add nsw i32 %52, 1
  store i32 %53, i32* %4, align 4
  br label %10

54:                                               ; preds = %49, %10
  %55 = load i32, i32* %4, align 4
  %56 = call i32 (i8*, ...) @printf(i8* getelementptr inbounds ([3 x i8], [3 x i8]* @.str.1, i64 0, i64 0), i32 %55)
  ret void
}

declare dso_local i32 @__isoc99_scanf(i8*, ...) #1

declare dso_local i32 @printf(i8*, ...) #1


!llvm.module.flags = !{!0}
!llvm.ident = !{!1}

!0 = !{i32 1, !"wchar_size", i32 4}
!1 = !{!"clang version 10.0.0-4ubuntu1 "}
